(dp1
S'info_sent'
p2
F0
sS'lsd'
p3
I01
sS'max_download_speed'
p4
F-1
sS'send_info'
p5
I00
sS'torrentfiles_location'
p6
S'/home/zhou'
p7
sS'state_location'
p8
S'/home/zhou/.config/deluge/state'
p9
sS'stop_seed_at_ratio'
p10
I00
sS'max_active_limit'
p11
I8
sS'enc_in_policy'
p12
I1
sS'queue_new_to_top'
p13
I00
sS'ignore_limits_on_local_network'
p14
I01
sS'rate_limit_ip_overhead'
p15
I01
sS'peer_tos'
p16
S'0x00'
p17
sS'daemon_port'
p18
I58846
sS'natpmp'
p19
I01
sS'autoadd_enable'
p20
I00
sS'upnp'
p21
I01
sS'utpex'
p22
I01
sS'max_download_speed_per_torrent'
p23
I-1
sS'max_active_seeding'
p24
I5
sS'allow_remote'
p25
I00
sS'outgoing_ports'
p26
(lp27
I0
aI0
asS'max_half_open_connections'
p28
I50
sS'enabled_plugins'
p29
(lp30
sS'plugins_location'
p31
S'/home/zhou/.config/deluge/plugins'
p32
sS'download_location'
p33
g7
sS'compact_allocation'
p34
I00
sS'max_upload_speed'
p35
F-1
sS'max_connections_global'
p36
I200
sS'enc_prefer_rc4'
p37
I01
sS'listen_ports'
p38
(lp39
I6881
aI6891
asS'dht'
p40
I01
sS'move_completed_path'
p41
g7
sS'stop_seed_ratio'
p42
F2
sS'max_active_downloading'
p43
I3
sS'prioritize_first_last_pieces'
p44
I00
sS'max_upload_speed_per_torrent'
p45
I-1
sS'auto_managed'
p46
I01
sS'enc_level'
p47
I2
sS'copy_torrent_file'
p48
I00
sS'max_connections_per_second'
p49
I20
sS'max_connections_per_torrent'
p50
I-1
sS'move_completed'
p51
I00
sS'proxies'
p52
(dp53
S'peer'
p54
(dp55
S'username'
p56
S''
sS'password'
p57
S''
sS'hostname'
p58
S''
sS'type'
p59
I0
sS'port'
p60
I8080
ssS'web_seed'
p61
(dp62
g56
S''
sg57
S''
sg58
S''
sg59
I0
sg60
I8080
ssS'tracker'
p63
(dp64
g56
S''
sg57
S''
sg58
S''
sg59
I0
sg60
I8080
ssg40
(dp65
g56
S''
sg57
S''
sg58
S''
sg59
I0
sg60
I8080
sssS'dont_count_slow_torrents'
p66
I00
sS'add_paused'
p67
I00
sS'random_outgoing_ports'
p68
I01
sS'max_upload_slots_per_torrent'
p69
I-1
sS'new_release_check'
p70
I00
sS'enc_out_policy'
p71
I1
sS'seed_time_ratio_limit'
p72
F7
sS'remove_seed_at_ratio'
p73
I00
sS'autoadd_location'
p74
g7
sS'max_upload_slots_global'
p75
I4
sS'config_location'
p76
S'/home/zhou/.config/deluge'
p77
sS'seed_time_limit'
p78
I100
sS'share_ratio_limit'
p79
F2
sS'random_port'
p80
I01
s.