(dp1
S'close_to_tray'
p2
I01
sS'ntf_sound_path'
p3
S'/home/zhou'
p4
sS'window_width'
p5
I1438
sS'default_load_path'
p6
S'/home/zhou'
p7
sS'window_y_pos'
p8
I28
sS'ntf_email'
p9
I00
sS'tray_upload_speed_list'
p10
(lp11
F5
aF10
aF30
aF80
aF150
asS'show_statusbar'
p12
I01
sS'ntf_popup'
p13
I00
sS'ntf_pass'
p14
S''
sS'show_sidebar'
p15
I01
sS'autoconnect_host_uri'
p16
NsS'window_maximized'
p17
I00
sS'enable_system_tray'
p18
I01
sS'tray_download_speed_list'
p19
(lp20
F5
aF10
aF30
aF80
aF300
asS'show_connection_manager_on_start'
p21
I01
sS'lock_tray'
p22
I00
sS'ntf_sound'
p23
I00
sS'tray_password'
p24
S''
sS'focus_add_dialog'
p25
I01
sS'ntf_server'
p26
S''
sS'start_in_tray'
p27
I00
sS'ntf_tray_blink'
p28
I01
sS'check_new_releases'
p29
I01
sS'autoadd_queued'
p30
I00
sS'classic_mode'
p31
I01
sS'window_pane_position'
p32
I348
sS'enabled_plugins'
p33
(lp34
S'Blocklist'
p35
aS'Label'
p36
asS'show_rate_in_title'
p37
I00
sS'autoadd_enable'
p38
I00
sS'ntf_username'
p39
S''
sS'interactive_add'
p40
I01
sS'sidebar_show_zero'
p41
I00
sS'window_x_pos'
p42
I0
sS'window_height'
p43
I870
sS'ntf_security'
p44
NsS'connection_limit_list'
p45
(lp46
I50
aI100
aI200
aI300
aI500
asS'sidebar_position'
p47
I170
sS'show_new_releases'
p48
I00
sS'autoconnect'
p49
I00
sS'choose_directory_dialog_path'
p50
g4
sS'sidebar_show_trackers'
p51
I01
sS'autostart_localhost'
p52
I00
sS'show_toolbar'
p53
I01
sS'autoadd_location'
p54
S''
sS'config_location'
p55
S'/home/zhou/.config/deluge'
p56
sS'ntf_email_add'
p57
S''
sS'signal_port'
p58
I61602
s.